
basic.elf:     file format elf32-littleriscv


Disassembly of section .text:

00000000 <_start>:
   0:	00100293          	addi	t0,zero,1
   4:	00552023          	sw	t0,0(a0)
   8:	00200313          	addi	t1,zero,2
   c:	00652223          	sw	t1,4(a0)

00000010 <TestBranches>:
  10:	00629463          	bne	t0,t1,18 <next_1>
  14:	150000ef          	jal	ra,164 <Excep>

00000018 <next_1>:
  18:	00c00293          	addi	t0,zero,12
  1c:	00c00313          	addi	t1,zero,12
  20:	00628463          	beq	t0,t1,28 <next_2>
  24:	140000ef          	jal	ra,164 <Excep>

00000028 <next_2>:
  28:	fff00293          	addi	t0,zero,-1
  2c:	00200313          	addi	t1,zero,2
  30:	0062c463          	blt	t0,t1,38 <next_3>
  34:	130000ef          	jal	ra,164 <Excep>

00000038 <next_3>:
  38:	00200293          	addi	t0,zero,2
  3c:	fff00313          	addi	t1,zero,-1
  40:	0062d463          	bge	t0,t1,48 <next_4>
  44:	120000ef          	jal	ra,164 <Excep>

00000048 <next_4>:
  48:	00100293          	addi	t0,zero,1
  4c:	00200313          	addi	t1,zero,2
  50:	0062e463          	bltu	t0,t1,58 <next_5>
  54:	110000ef          	jal	ra,164 <Excep>

00000058 <next_5>:
  58:	00200293          	addi	t0,zero,2
  5c:	00100313          	addi	t1,zero,1
  60:	0062f463          	bgeu	t0,t1,68 <TestLoadStore>
  64:	100000ef          	jal	ra,164 <Excep>

00000068 <TestLoadStore>:
  68:	00100293          	addi	t0,zero,1
  6c:	00552023          	sw	t0,0(a0)
  70:	00552623          	sw	t0,12(a0)
  74:	fff00293          	addi	t0,zero,-1
  78:	00552023          	sw	t0,0(a0)
  7c:	00c52503          	lw	a0,12(a0)
  80:	0e550263          	beq	a0,t0,164 <Excep>
  84:	00000293          	addi	t0,zero,0
  88:	00552623          	sw	t0,12(a0)
  8c:	fff00293          	addi	t0,zero,-1
  90:	00552423          	sw	t0,8(a0)
  94:	00852603          	lw	a2,8(a0)
  98:	00551623          	sh	t0,12(a0)
  9c:	00c55583          	lhu	a1,12(a0)
  a0:	00c51503          	lh	a0,12(a0)
  a4:	0cc58063          	beq	a1,a2,164 <Excep>
  a8:	0ac51e63          	bne	a0,a2,164 <Excep>
  ac:	00000293          	addi	t0,zero,0
  b0:	00552623          	sw	t0,12(a0)
  b4:	ff000293          	addi	t0,zero,-16
  b8:	00552423          	sw	t0,8(a0)
  bc:	00852603          	lw	a2,8(a0)
  c0:	00550623          	sb	t0,12(a0)
  c4:	00c54583          	lbu	a1,12(a0)
  c8:	00c50503          	lb	a0,12(a0)
  cc:	08c58c63          	beq	a1,a2,164 <Excep>
  d0:	08c51a63          	bne	a0,a2,164 <Excep>

000000d4 <TestJumps>:
  d4:	00000517          	auipc	a0,0x0
  d8:	01850567          	jalr	a0,24(a0) # ec <TestJumps+0x18>
  dc:	00000013          	addi	zero,zero,0
  e0:	00000013          	addi	zero,zero,0
  e4:	00000013          	addi	zero,zero,0
  e8:	00000013          	addi	zero,zero,0
  ec:	00c000ef          	jal	ra,f8 <TestComputationalInstructions>
  f0:	00000013          	addi	zero,zero,0
  f4:	00000013          	addi	zero,zero,0

000000f8 <TestComputationalInstructions>:
  f8:	fffff537          	lui	a0,0xfffff
  fc:	00455513          	srli	a0,a0,0x4
 100:	00451513          	slli	a0,a0,0x4
 104:	40455513          	srai	a0,a0,0x4
 108:	fff00293          	addi	t0,zero,-1
 10c:	0002a313          	slti	t1,t0,0
 110:	0002b313          	sltiu	t1,t0,0
 114:	00000293          	addi	t0,zero,0
 118:	0002c313          	xori	t1,t0,0
 11c:	0012e313          	ori	t1,t0,1
 120:	8012f313          	andi	t1,t0,-2047
 124:	00029313          	slli	t1,t0,0x0

00000128 <TestReg_Reg>:
 128:	00200293          	addi	t0,zero,2
 12c:	00100313          	addi	t1,zero,1
 130:	006283b3          	add	t2,t0,t1
 134:	406283b3          	sub	t2,t0,t1
 138:	006293b3          	sll	t2,t0,t1
 13c:	0062a3b3          	slt	t2,t0,t1
 140:	fff00313          	addi	t1,zero,-1
 144:	0062b3b3          	sltu	t2,t0,t1
 148:	00100313          	addi	t1,zero,1
 14c:	0062c3b3          	xor	t2,t0,t1
 150:	0062d3b3          	srl	t2,t0,t1
 154:	4062d3b3          	sra	t2,t0,t1
 158:	0062e3b3          	or	t2,t0,t1
 15c:	0062f3b3          	and	t2,t0,t1
 160:	010000ef          	jal	ra,170 <EXIT>

00000164 <Excep>:
 164:	00f00293          	addi	t0,zero,15
 168:	00f00313          	addi	t1,zero,15
 16c:	004000ef          	jal	ra,170 <EXIT>

00000170 <EXIT>:
 170:	00000513          	addi	a0,zero,0
 174:	00000593          	addi	a1,zero,0
 178:	00000073          	ecall
