
total.elf:     file format elf32-littleriscv


Disassembly of section .text:

00000000 <_start>:
   0:	00100293          	addi	t0,zero,1
   4:	00552023          	sw	t0,0(a0)
   8:	00200313          	addi	t1,zero,2
   c:	00652223          	sw	t1,4(a0)

00000010 <TestBranches>:
  10:	00629463          	bne	t0,t1,18 <next_1>
  14:	14c000ef          	jal	ra,160 <Excep>

00000018 <next_1>:
  18:	00c00293          	addi	t0,zero,12
  1c:	00c00313          	addi	t1,zero,12
  20:	00628463          	beq	t0,t1,28 <next_2>
  24:	13c000ef          	jal	ra,160 <Excep>

00000028 <next_2>:
  28:	fff00293          	addi	t0,zero,-1
  2c:	00200313          	addi	t1,zero,2
  30:	0062c463          	blt	t0,t1,38 <next_3>
  34:	12c000ef          	jal	ra,160 <Excep>

00000038 <next_3>:
  38:	00200293          	addi	t0,zero,2
  3c:	fff00313          	addi	t1,zero,-1
  40:	0062d463          	bge	t0,t1,48 <next_4>
  44:	11c000ef          	jal	ra,160 <Excep>

00000048 <next_4>:
  48:	00100293          	addi	t0,zero,1
  4c:	00200313          	addi	t1,zero,2
  50:	0062e463          	bltu	t0,t1,58 <next_5>
  54:	10c000ef          	jal	ra,160 <Excep>

00000058 <next_5>:
  58:	00200293          	addi	t0,zero,2
  5c:	00100313          	addi	t1,zero,1
  60:	0062f463          	bgeu	t0,t1,68 <TestLoadStore>
  64:	0fc000ef          	jal	ra,160 <Excep>

00000068 <TestLoadStore>:
  68:	00100293          	addi	t0,zero,1
  6c:	00552023          	sw	t0,0(a0)
  70:	00552623          	sw	t0,12(a0)
  74:	fff00293          	addi	t0,zero,-1
  78:	00552023          	sw	t0,0(a0)
  7c:	00c52503          	lw	a0,12(a0)
  80:	0e550063          	beq	a0,t0,160 <Excep>
  84:	00000293          	addi	t0,zero,0
  88:	00552623          	sw	t0,12(a0)
  8c:	fff00293          	addi	t0,zero,-1
  90:	00552423          	sw	t0,8(a0)
  94:	00852603          	lw	a2,8(a0)
  98:	00551623          	sh	t0,12(a0)
  9c:	00c55583          	lhu	a1,12(a0)
  a0:	00c51503          	lh	a0,12(a0)
  a4:	0ac58e63          	beq	a1,a2,160 <Excep>
  a8:	0ac51c63          	bne	a0,a2,160 <Excep>
  ac:	00000293          	addi	t0,zero,0
  b0:	00552623          	sw	t0,12(a0)
  b4:	ff000293          	addi	t0,zero,-16
  b8:	00552423          	sw	t0,8(a0)
  bc:	00852603          	lw	a2,8(a0)
  c0:	00550623          	sb	t0,12(a0)
  c4:	00c54583          	lbu	a1,12(a0)
  c8:	00c50503          	lb	a0,12(a0)
  cc:	08c58a63          	beq	a1,a2,160 <Excep>
  d0:	08c51863          	bne	a0,a2,160 <Excep>

000000d4 <TestJumps>:
  d4:	00000517          	auipc	a0,0x0
  d8:	01850567          	jalr	a0,24(a0) # ec <TestJumps+0x18>
  dc:	00000013          	addi	zero,zero,0
  e0:	00000013          	addi	zero,zero,0
  e4:	00000013          	addi	zero,zero,0
  e8:	00000013          	addi	zero,zero,0
  ec:	00c000ef          	jal	ra,f8 <TestComputationalInstructions>
  f0:	00000013          	addi	zero,zero,0
  f4:	00000013          	addi	zero,zero,0

000000f8 <TestComputationalInstructions>:
  f8:	fffff537          	lui	a0,0xfffff
  fc:	00455513          	srli	a0,a0,0x4
 100:	00451513          	slli	a0,a0,0x4
 104:	40455513          	srai	a0,a0,0x4
 108:	fff00293          	addi	t0,zero,-1
 10c:	0002a313          	slti	t1,t0,0
 110:	0002b313          	sltiu	t1,t0,0
 114:	00000293          	addi	t0,zero,0
 118:	0002c313          	xori	t1,t0,0
 11c:	0012e313          	ori	t1,t0,1
 120:	8012f313          	andi	t1,t0,-2047

00000124 <TestReg_Reg>:
 124:	00200293          	addi	t0,zero,2
 128:	00100313          	addi	t1,zero,1
 12c:	006283b3          	add	t2,t0,t1
 130:	406283b3          	sub	t2,t0,t1
 134:	006293b3          	sll	t2,t0,t1
 138:	0062a3b3          	slt	t2,t0,t1
 13c:	fff00313          	addi	t1,zero,-1
 140:	0062b3b3          	sltu	t2,t0,t1
 144:	00100313          	addi	t1,zero,1
 148:	0062c3b3          	xor	t2,t0,t1
 14c:	0062d3b3          	srl	t2,t0,t1
 150:	4062d3b3          	sra	t2,t0,t1
 154:	0062e3b3          	or	t2,t0,t1
 158:	0062f3b3          	and	t2,t0,t1
 15c:	010000ef          	jal	ra,16c <Fibo>

00000160 <Excep>:
 160:	00f00293          	addi	t0,zero,15
 164:	00f00313          	addi	t1,zero,15
 168:	268000ef          	jal	ra,3d0 <EXIT>

0000016c <Fibo>:
 16c:	00000513          	addi	a0,zero,0
 170:	00008137          	lui	sp,0x8
 174:	00a00593          	addi	a1,zero,10
 178:	00500613          	addi	a2,zero,5
 17c:	00500693          	addi	a3,zero,5
 180:	00000793          	addi	a5,zero,0
 184:	00500293          	addi	t0,zero,5
 188:	ffb00313          	addi	t1,zero,-5
 18c:	008000ef          	jal	ra,194 <fibonacci>
 190:	030000ef          	jal	ra,1c0 <Multi>

00000194 <fibonacci>:
 194:	00059463          	bne	a1,zero,19c <continue_fibonacci>
 198:	00008067          	jalr	zero,0(ra)

0000019c <continue_fibonacci>:
 19c:	02d60733          	mul	a4,a2,a3
 1a0:	02d617b3          	mulh	a5,a2,a3
 1a4:	00e52023          	sw	a4,0(a0) # fffff000 <bss_end+0xffffec0c>
 1a8:	00f52223          	sw	a5,4(a0)
 1ac:	02660633          	mul	a2,a2,t1
 1b0:	025686b3          	mul	a3,a3,t0
 1b4:	00850513          	addi	a0,a0,8
 1b8:	fff58593          	addi	a1,a1,-1
 1bc:	fd9ff06f          	jal	zero,194 <fibonacci>

000001c0 <Multi>:
 1c0:	00000513          	addi	a0,zero,0
 1c4:	00008137          	lui	sp,0x8
 1c8:	00100593          	addi	a1,zero,1
 1cc:	fff00613          	addi	a2,zero,-1
 1d0:	02c585b3          	mul	a1,a1,a2
 1d4:	02c595b3          	mulh	a1,a1,a2
 1d8:	02c5b5b3          	mulhu	a1,a1,a2
 1dc:	00000593          	addi	a1,zero,0
 1e0:	00000613          	addi	a2,zero,0
 1e4:	02c585b3          	mul	a1,a1,a2
 1e8:	0ffff5b7          	lui	a1,0xffff
 1ec:	0ff58593          	addi	a1,a1,255 # ffff0ff <bss_end+0xfffed0b>
 1f0:	0ffff637          	lui	a2,0xffff
 1f4:	0ff58613          	addi	a2,a1,255
 1f8:	02c585b3          	mul	a1,a1,a2
 1fc:	02c595b3          	mulh	a1,a1,a2
 200:	02c5b5b3          	mulhu	a1,a1,a2
 204:	c0000513          	addi	a0,zero,-1024
 208:	c0000593          	addi	a1,zero,-1024
 20c:	3ff00293          	addi	t0,zero,1023
 210:	01851313          	slli	t1,a0,0x18
 214:	01859393          	slli	t2,a1,0x18

00000218 <block_start>:
 218:	02555863          	bge	a0,t0,248 <block_end>

0000021c <block2_start>:
 21c:	0055de63          	bge	a1,t0,238 <block2_end>
 220:	02730633          	mul	a2,t1,t2
 224:	02731633          	mulh	a2,t1,t2
 228:	02733633          	mulhu	a2,t1,t2
 22c:	00158593          	addi	a1,a1,1
 230:	01659393          	slli	t2,a1,0x16
 234:	fe9ff06f          	jal	zero,21c <block2_start>

00000238 <block2_end>:
 238:	c0000593          	addi	a1,zero,-1024
 23c:	00150513          	addi	a0,a0,1
 240:	01651313          	slli	t1,a0,0x16
 244:	fd5ff06f          	jal	zero,218 <block_start>

00000248 <block_end>:
 248:	00000013          	addi	zero,zero,0
 24c:	00100593          	addi	a1,zero,1
 250:	00100613          	addi	a2,zero,1
 254:	00300293          	addi	t0,zero,3
 258:	01400693          	addi	a3,zero,20

0000025c <Multi3_loop>:
 25c:	02c587b3          	mul	a5,a1,a2
 260:	025585b3          	mul	a1,a1,t0
 264:	02560633          	mul	a2,a2,t0
 268:	fff68693          	addi	a3,a3,-1
 26c:	fe0698e3          	bne	a3,zero,25c <Multi3_loop>
 270:	00100593          	addi	a1,zero,1
 274:	00100613          	addi	a2,zero,1
 278:	00200293          	addi	t0,zero,2
 27c:	01e00693          	addi	a3,zero,30

00000280 <Multi2_loop>:
 280:	02c587b3          	mul	a5,a1,a2
 284:	025585b3          	mul	a1,a1,t0
 288:	02560633          	mul	a2,a2,t0
 28c:	fff68693          	addi	a3,a3,-1
 290:	fe0698e3          	bne	a3,zero,280 <Multi2_loop>
 294:	00a00593          	addi	a1,zero,10
 298:	00500613          	addi	a2,zero,5
 29c:	00500693          	addi	a3,zero,5
 2a0:	00000793          	addi	a5,zero,0
 2a4:	00500293          	addi	t0,zero,5
 2a8:	ffb00313          	addi	t1,zero,-5
 2ac:	008000ef          	jal	ra,2b4 <fib1>
 2b0:	030000ef          	jal	ra,2e0 <Sort>

000002b4 <fib1>:
 2b4:	00059463          	bne	a1,zero,2bc <continue_fibo>
 2b8:	00008067          	jalr	zero,0(ra)

000002bc <continue_fibo>:
 2bc:	02d60733          	mul	a4,a2,a3
 2c0:	02d617b3          	mulh	a5,a2,a3
 2c4:	00e52023          	sw	a4,0(a0)
 2c8:	00f52223          	sw	a5,4(a0)
 2cc:	02660633          	mul	a2,a2,t1
 2d0:	025686b3          	mul	a3,a3,t0
 2d4:	00850513          	addi	a0,a0,8
 2d8:	fff58593          	addi	a1,a1,-1
 2dc:	fd9ff06f          	jal	zero,2b4 <fib1>

000002e0 <Sort>:
 2e0:	00001137          	lui	sp,0x1
 2e4:	00010113          	addi	sp,sp,0 # 1000 <bss_end+0xc0c>
 2e8:	00000513          	addi	a0,zero,0
 2ec:	00100293          	addi	t0,zero,1
 2f0:	00552023          	sw	t0,0(a0)
 2f4:	00500293          	addi	t0,zero,5
 2f8:	00552223          	sw	t0,4(a0)
 2fc:	00300293          	addi	t0,zero,3
 300:	00552423          	sw	t0,8(a0)
 304:	00400293          	addi	t0,zero,4
 308:	00552623          	sw	t0,12(a0)
 30c:	00a00293          	addi	t0,zero,10
 310:	00552823          	sw	t0,16(a0)
 314:	01600293          	addi	t0,zero,22
 318:	00552a23          	sw	t0,20(a0)
 31c:	00200293          	addi	t0,zero,2
 320:	00552c23          	sw	t0,24(a0)
 324:	00300293          	addi	t0,zero,3
 328:	00552e23          	sw	t0,28(a0)
 32c:	02c00293          	addi	t0,zero,44
 330:	02552023          	sw	t0,32(a0)
 334:	00900593          	addi	a1,zero,9
 338:	008000ef          	jal	ra,340 <SEL_SORT>
 33c:	094000ef          	jal	ra,3d0 <EXIT>

00000340 <SEL_SORT>:
 340:	ff810113          	addi	sp,sp,-8
 344:	00112223          	sw	ra,4(sp)
 348:	00812023          	sw	s0,0(sp)
 34c:	00000293          	addi	t0,zero,0
 350:	00000313          	addi	t1,zero,0
 354:	00000393          	addi	t2,zero,0
 358:	00058413          	addi	s0,a1,0
 35c:	fff58593          	addi	a1,a1,-1

00000360 <UNSORTED_ARRAY_BOUNDARY_LOOP>:
 360:	06b28063          	beq	t0,a1,3c0 <END_UNSORTED_ARRAY_BOUNDARY_LOOP>
 364:	00028393          	addi	t2,t0,0
 368:	00128313          	addi	t1,t0,1

0000036c <SUBARRAY_LOOP>:
 36c:	02830663          	beq	t1,s0,398 <END_SUBARRAY_LOOP>
 370:	00231f13          	slli	t5,t1,0x2
 374:	01e50fb3          	add	t6,a0,t5
 378:	000fae83          	lw	t4,0(t6)
 37c:	00239f13          	slli	t5,t2,0x2
 380:	01e50fb3          	add	t6,a0,t5
 384:	000fae03          	lw	t3,0(t6)
 388:	01de4463          	blt	t3,t4,390 <MIN_REMAINS_SAME>
 38c:	00030393          	addi	t2,t1,0

00000390 <MIN_REMAINS_SAME>:
 390:	00130313          	addi	t1,t1,1
 394:	fc000ce3          	beq	zero,zero,36c <SUBARRAY_LOOP>

00000398 <END_SUBARRAY_LOOP>:
 398:	00239f13          	slli	t5,t2,0x2
 39c:	01e50fb3          	add	t6,a0,t5
 3a0:	000fae03          	lw	t3,0(t6)
 3a4:	00229313          	slli	t1,t0,0x2
 3a8:	00a30333          	add	t1,t1,a0
 3ac:	00032e83          	lw	t4,0(t1)
 3b0:	01c32023          	sw	t3,0(t1)
 3b4:	01dfa023          	sw	t4,0(t6)
 3b8:	00128293          	addi	t0,t0,1
 3bc:	fa0002e3          	beq	zero,zero,360 <UNSORTED_ARRAY_BOUNDARY_LOOP>

000003c0 <END_UNSORTED_ARRAY_BOUNDARY_LOOP>:
 3c0:	00012403          	lw	s0,0(sp)
 3c4:	00412083          	lw	ra,4(sp)
 3c8:	00810113          	addi	sp,sp,8
 3cc:	00008067          	jalr	zero,0(ra)

000003d0 <EXIT>:
 3d0:	00000513          	addi	a0,zero,0
 3d4:	00000593          	addi	a1,zero,0
 3d8:	0000f637          	lui	a2,0xf
 3dc:	7f0600e7          	jalr	ra,2032(a2) # f7f0 <bss_end+0xf3fc>
 3e0:	00000693          	addi	a3,zero,0
 3e4:	00000693          	addi	a3,zero,0
 3e8:	00000693          	addi	a3,zero,0
 3ec:	00000073          	ecall

000003f0 <EXIT_HIGH>:
 3f0:	00000073          	ecall
